target datalayout = "e-m:e-p270:32:32-p271:32:32-p272:64:64-i64:64-i128:128-f80:128-n8:16:32:64-S128"
target triple = "x86_64-pc-linux-gnu"

%struct.ident_t = type { i32, i32, i32, i32, ptr }
%"class.ncnn::BatchNorm" = type { %"class.ncnn::Layer", i32, float, %"class.ncnn::Mat", %"class.ncnn::Mat", %"class.ncnn::Mat", %"class.ncnn::Mat", %"class.ncnn::Mat", %"class.ncnn::Mat" }
%"class.ncnn::Layer" = type { ptr, i8, i8, i8, i8, i8, i8, i8, i8, i8, i8, i8, i8, i8, i8, i8, i8, i8, i8, i8, i8, i32, ptr, i32, %"class.std::__cxx11::basic_string", %"class.std::__cxx11::basic_string", %"class.std::vector", %"class.std::vector", %"class.std::vector.3", %"class.std::vector.3" }
%"class.std::__cxx11::basic_string" = type { %"struct.std::__cxx11::basic_string<char>::_Alloc_hider", i64, %union.anon }
%"struct.std::__cxx11::basic_string<char>::_Alloc_hider" = type { ptr }
%union.anon = type { i64, [8 x i8] }
%"class.std::vector" = type { %"struct.std::_Vector_base" }
%"struct.std::_Vector_base" = type { %"struct.std::_Vector_base<int, std::allocator<int>>::_Vector_impl" }
%"struct.std::_Vector_base<int, std::allocator<int>>::_Vector_impl" = type { %"struct.std::_Vector_base<int, std::allocator<int>>::_Vector_impl_data" }
%"struct.std::_Vector_base<int, std::allocator<int>>::_Vector_impl_data" = type { ptr, ptr, ptr }
%"class.std::vector.3" = type { %"struct.std::_Vector_base.4" }
%"struct.std::_Vector_base.4" = type { %"struct.std::_Vector_base<ncnn::Mat, std::allocator<ncnn::Mat>>::_Vector_impl" }
%"struct.std::_Vector_base<ncnn::Mat, std::allocator<ncnn::Mat>>::_Vector_impl" = type { %"struct.std::_Vector_base<ncnn::Mat, std::allocator<ncnn::Mat>>::_Vector_impl_data" }
%"struct.std::_Vector_base<ncnn::Mat, std::allocator<ncnn::Mat>>::_Vector_impl_data" = type { ptr, ptr, ptr }
%"class.ncnn::Mat" = type { ptr, ptr, i64, i32, ptr, i32, i32, i32, i32, i32, i64 }

@1 = private unnamed_addr constant %struct.ident_t { i32 0, i32 514, i32 0, i32 22, ptr @0 }, align 8

; Function Attrs: noinline noreturn nounwind uwtable
define linkonce_odr hidden void @__clang_call_terminate(ptr noundef %0) #6 comdat {
  %2 = call ptr @__cxa_begin_catch(ptr %0) #10
  call void @_ZSt9terminatev() #13
  unreachable
}

; Function Attrs: alwaysinline mustprogress nounwind uwtable
define linkonce_odr hidden noundef nonnull align 4 dereferenceable(4) ptr @_ZNK4ncnn3MatixEm(ptr noundef nonnull align 8 dereferenceable(72) %0, i64 noundef %1) #3 comdat align 2 {
  %3 = alloca ptr, align 8
  %4 = alloca i64, align 8
  store ptr %0, ptr %3, align 8, !tbaa !42
  store i64 %1, ptr %4, align 8, !tbaa !63
  %5 = load ptr, ptr %3, align 8
  %6 = getelementptr inbounds nuw %"class.ncnn::Mat", ptr %5, i32 0, i32 0
  %7 = load ptr, ptr %6, align 8, !tbaa !56
  %8 = load i64, ptr %4, align 8, !tbaa !63
  %9 = getelementptr inbounds nuw float, ptr %7, i64 %8
  ret ptr %9
}

; Function Attrs: alwaysinline norecurse nounwind uwtable
define internal void @_ZNK4ncnn9BatchNorm15forward_inplaceERNS_3MatERKNS_6OptionE.omp_outlined(ptr noalias noundef %0, ptr noalias noundef %1, ptr noundef nonnull align 4 dereferenceable(4) %2, ptr noundef nonnull align 8 dereferenceable(8) %3, ptr noundef %4) #9 personality ptr @__gxx_personality_v0 {
  %6 = alloca ptr, align 8
  %7 = alloca ptr, align 8
  %8 = alloca ptr, align 8
  %9 = alloca ptr, align 8
  %10 = alloca ptr, align 8
  %11 = alloca i32, align 4
  %12 = alloca i32, align 4
  %13 = alloca i32, align 4
  %14 = alloca i32, align 4
  %15 = alloca i32, align 4
  %16 = alloca i32, align 4
  %17 = alloca i32, align 4
  %18 = alloca i32, align 4
  %19 = alloca i32, align 4
  store ptr %0, ptr %6, align 8, !tbaa !64
  store ptr %1, ptr %7, align 8, !tbaa !64
  store ptr %2, ptr %8, align 8, !tbaa !64
  store ptr %3, ptr %9, align 8, !tbaa !65
  store ptr %4, ptr %10, align 8, !tbaa !4
  %20 = load ptr, ptr %8, align 8, !tbaa !64
  %21 = load ptr, ptr %9, align 8, !tbaa !65
  %22 = load ptr, ptr %10, align 8, !tbaa !4
  call void @llvm.lifetime.start.p0(i64 4, ptr %11) #10
  call void @llvm.lifetime.start.p0(i64 4, ptr %12) #10
  %23 = load i32, ptr %20, align 4, !tbaa !38
  store i32 %23, ptr %12, align 4, !tbaa !38
  call void @llvm.lifetime.start.p0(i64 4, ptr %13) #10
  %24 = load i32, ptr %12, align 4, !tbaa !38
  %25 = sub nsw i32 %24, 0
  %26 = sdiv i32 %25, 1
  %27 = sub nsw i32 %26, 1
  store i32 %27, ptr %13, align 4, !tbaa !38
  call void @llvm.lifetime.start.p0(i64 4, ptr %14) #10
  store i32 0, ptr %14, align 4, !tbaa !38
  call void @llvm.lifetime.end.p0(i64 4, ptr %14) #10
  %28 = load i32, ptr %12, align 4, !tbaa !38
  %29 = icmp slt i32 0, %28
  br i1 %29, label %30, label %84

30:                                               ; preds = %5
  call void @llvm.lifetime.start.p0(i64 4, ptr %15) #10
  store i32 0, ptr %15, align 4, !tbaa !38
  call void @llvm.lifetime.start.p0(i64 4, ptr %16) #10
  %31 = load i32, ptr %13, align 4, !tbaa !38
  store i32 %31, ptr %16, align 4, !tbaa !38
  call void @llvm.lifetime.start.p0(i64 4, ptr %17) #10
  store i32 1, ptr %17, align 4, !tbaa !38
  call void @llvm.lifetime.start.p0(i64 4, ptr %18) #10
  store i32 0, ptr %18, align 4, !tbaa !38
  call void @llvm.lifetime.start.p0(i64 4, ptr %19) #10
  %32 = load ptr, ptr %6, align 8
  %33 = load i32, ptr %32, align 4, !tbaa !38
  call void @__kmpc_for_static_init_4(ptr @1, i32 %33, i32 34, ptr %18, ptr %15, ptr %16, ptr %17, i32 1, i32 1)
  %34 = load i32, ptr %16, align 4, !tbaa !38
  %35 = load i32, ptr %13, align 4, !tbaa !38
  %36 = icmp sgt i32 %34, %35
  br i1 %36, label %37, label %39

37:                                               ; preds = %30
  %38 = load i32, ptr %13, align 4, !tbaa !38
  br label %41

39:                                               ; preds = %30
  %40 = load i32, ptr %16, align 4, !tbaa !38
  br label %41

41:                                               ; preds = %39, %37
  %42 = phi i32 [ %38, %37 ], [ %40, %39 ]
  store i32 %42, ptr %16, align 4, !tbaa !38
  %43 = load i32, ptr %15, align 4, !tbaa !38
  store i32 %43, ptr %11, align 4, !tbaa !38
  br label %44

44:                                               ; preds = %77, %41
  %45 = load i32, ptr %11, align 4, !tbaa !38
  %46 = load i32, ptr %16, align 4, !tbaa !38
  %47 = icmp sle i32 %45, %46
  br i1 %47, label %49, label %48

48:                                               ; preds = %44
  br label %80

49:                                               ; preds = %44
  %50 = load i32, ptr %11, align 4, !tbaa !38
  %51 = mul nsw i32 %50, 1
  %52 = add nsw i32 0, %51
  store i32 %52, ptr %19, align 4, !tbaa !38
  %53 = getelementptr inbounds nuw %"class.ncnn::BatchNorm", ptr %22, i32 0, i32 8
  %54 = load i32, ptr %19, align 4, !tbaa !38
  %55 = sext i32 %54 to i64
  %56 = invoke noundef nonnull align 4 dereferenceable(4) ptr @_ZNK4ncnn3MatixEm(ptr noundef nonnull align 8 dereferenceable(72) %53, i64 noundef %55)
          to label %57 unwind label %85

57:                                               ; preds = %49
  %58 = load float, ptr %56, align 4, !tbaa !39
  %59 = load ptr, ptr %21, align 8, !tbaa !47
  %60 = load i32, ptr %19, align 4, !tbaa !38
  %61 = sext i32 %60 to i64
  %62 = getelementptr inbounds float, ptr %59, i64 %61
  %63 = load float, ptr %62, align 4, !tbaa !39
  %64 = fmul fast float %58, %63
  %65 = getelementptr inbounds nuw %"class.ncnn::BatchNorm", ptr %22, i32 0, i32 7
  %66 = load i32, ptr %19, align 4, !tbaa !38
  %67 = sext i32 %66 to i64
  %68 = invoke noundef nonnull align 4 dereferenceable(4) ptr @_ZNK4ncnn3MatixEm(ptr noundef nonnull align 8 dereferenceable(72) %65, i64 noundef %67)
          to label %69 unwind label %85

69:                                               ; preds = %57
  %70 = load float, ptr %68, align 4, !tbaa !39
  %71 = fadd fast float %64, %70
  %72 = load ptr, ptr %21, align 8, !tbaa !47
  %73 = load i32, ptr %19, align 4, !tbaa !38
  %74 = sext i32 %73 to i64
  %75 = getelementptr inbounds float, ptr %72, i64 %74
  store float %71, ptr %75, align 4, !tbaa !39
  br label %76

76:                                               ; preds = %69
  br label %77

77:                                               ; preds = %76
  %78 = load i32, ptr %11, align 4, !tbaa !38
  %79 = add nsw i32 %78, 1
  store i32 %79, ptr %11, align 4, !tbaa !38
  br label %44

80:                                               ; preds = %48
  br label %81

81:                                               ; preds = %80
  %82 = load ptr, ptr %6, align 8
  %83 = load i32, ptr %82, align 4, !tbaa !38
  call void @__kmpc_for_static_fini(ptr @1, i32 %83)
  call void @llvm.lifetime.end.p0(i64 4, ptr %19) #10
  call void @llvm.lifetime.end.p0(i64 4, ptr %18) #10
  call void @llvm.lifetime.end.p0(i64 4, ptr %17) #10
  call void @llvm.lifetime.end.p0(i64 4, ptr %16) #10
  call void @llvm.lifetime.end.p0(i64 4, ptr %15) #10
  br label %84

84:                                               ; preds = %81, %5
  call void @llvm.lifetime.end.p0(i64 4, ptr %13) #10
  call void @llvm.lifetime.end.p0(i64 4, ptr %12) #10
  call void @llvm.lifetime.end.p0(i64 4, ptr %11) #10
  ret void

85:                                               ; preds = %57, %49
  %86 = landingpad { ptr, i32 }
          catch ptr null
  %87 = extractvalue { ptr, i32 } %86, 0
  call void @__clang_call_terminate(ptr %87) #13
  unreachable
}