; Function Attrs: alwaysinline norecurse nounwind uwtable
define internal void @_ZNK4ncnn9BatchNorm15forward_inplaceERNS_3MatERKNS_6OptionE.omp_outlined(ptr noalias noundef readonly captures(none) %0, ptr noalias readnone captures(none) %1, ptr noundef nonnull readonly align 4 captures(none) dereferenceable(4) %2, ptr noundef nonnull readonly align 8 captures(none) dereferenceable(8) %3, ptr noundef readonly captures(none) %4) #10 personality ptr @__gxx_personality_v0 {
  %6 = alloca i32, align 4
  %7 = alloca i32, align 4
  %8 = alloca i32, align 4
  %9 = alloca i32, align 4
  %10 = load i32, ptr %2, align 4, !tbaa !46
  %11 = icmp sgt i32 %10, 0
  br i1 %11, label %12, label %34

12:                                               ; preds = %5
  %13 = add nsw i32 %10, -1
  call void @llvm.lifetime.start.p0(i64 4, ptr nonnull %6) #11
  store i32 0, ptr %6, align 4, !tbaa !46
  call void @llvm.lifetime.start.p0(i64 4, ptr nonnull %7) #11
  store i32 %13, ptr %7, align 4, !tbaa !46
  call void @llvm.lifetime.start.p0(i64 4, ptr nonnull %8) #11
  store i32 1, ptr %8, align 4, !tbaa !46
  call void @llvm.lifetime.start.p0(i64 4, ptr nonnull %9) #11
  store i32 0, ptr %9, align 4, !tbaa !46
  %14 = load i32, ptr %0, align 4, !tbaa !46
  call void @__kmpc_for_static_init_4(ptr nonnull @1, i32 %14, i32 34, ptr nonnull %9, ptr nonnull %6, ptr nonnull %7, ptr nonnull %8, i32 1, i32 1)
  %15 = load i32, ptr %7, align 4, !tbaa !46
  %16 = call i32 @llvm.smin.i32(i32 %15, i32 %13)
  store i32 %16, ptr %7, align 4, !tbaa !46
  %17 = load i32, ptr %6, align 4, !tbaa !46
  %.not16 = icmp sgt i32 %17, %16
  br i1 %.not16, label %._crit_edge, label %.lr.ph

.lr.ph:                                           ; preds = %12
  %18 = getelementptr inbounds nuw i8, ptr %4, i64 576
  %19 = load ptr, ptr %18, align 8, !tbaa !16
  %20 = load ptr, ptr %3, align 8, !tbaa !47
  %21 = getelementptr inbounds nuw i8, ptr %4, i64 504
  %22 = load ptr, ptr %21, align 8, !tbaa !16
  %23 = sext i32 %17 to i64
  %24 = add nsw i32 %16, 1
  br label %25

25:                                               ; preds = %.lr.ph, %25
  %indvars.iv = phi i64 [ %23, %.lr.ph ], [ %indvars.iv.next, %25 ]
  %26 = getelementptr inbounds nuw float, ptr %19, i64 %indvars.iv
  %27 = load float, ptr %26, align 4, !tbaa !43
  %28 = getelementptr inbounds float, ptr %20, i64 %indvars.iv
  %29 = load float, ptr %28, align 4, !tbaa !43
  %30 = fmul fast float %29, %27
  %31 = getelementptr inbounds nuw float, ptr %22, i64 %indvars.iv
  %32 = load float, ptr %31, align 4, !tbaa !43
  %33 = fadd fast float %32, %30
  store float %33, ptr %28, align 4, !tbaa !43
  %indvars.iv.next = add nsw i64 %indvars.iv, 1
  %lftr.wideiv = trunc i64 %indvars.iv.next to i32
  %exitcond.not = icmp eq i32 %24, %lftr.wideiv
  br i1 %exitcond.not, label %._crit_edge, label %25

._crit_edge:                                      ; preds = %25, %12
  call void @__kmpc_for_static_fini(ptr nonnull @1, i32 %14)
  call void @llvm.lifetime.end.p0(i64 4, ptr nonnull %9) #11
  call void @llvm.lifetime.end.p0(i64 4, ptr nonnull %8) #11
  call void @llvm.lifetime.end.p0(i64 4, ptr nonnull %7) #11
  call void @llvm.lifetime.end.p0(i64 4, ptr nonnull %6) #11
  br label %34

34:                                               ; preds = %._crit_edge, %5
  ret void
}